; Function Attrs: mustprogress uwtable
define noundef zeroext i1 @_ZNK5draco10EntryValue8GetValueINSt7__cxx1112basic_stringIcSt11char_traitsIcESaIcEEEEEbPT_(ptr noundef nonnull readonly align 8 captures(none) dereferenceable(24) %0, ptr noundef %1) local_unnamed_addr #0 align 2 {
  %3 = load ptr, ptr %0, align 8, !tbaa !17
  %4 = getelementptr inbounds nuw i8, ptr %0, i64 8
  %5 = load ptr, ptr %4, align 8, !tbaa !17
  %6 = icmp ne ptr %3, %5
  br i1 %6, label %7, label %20

7:                                                ; preds = %2
  %8 = ptrtoint ptr %5 to i64
  %9 = ptrtoint ptr %3 to i64
  %10 = sub i64 %8, %9
  tail call void @_ZNSt7__cxx1112basic_stringIcSt11char_traitsIcESaIcEE6resizeEmc(ptr noundef nonnull align 8 dereferenceable(32) %1, i64 noundef %10, i8 noundef signext 0)
  %11 = getelementptr inbounds nuw i8, ptr %1, i64 8
  %12 = load i64, ptr %11, align 8, !tbaa !12
  %.not.i.not = icmp eq i64 %12, 0
  br i1 %.not.i.not, label %13, label %_ZNSt7__cxx1112basic_stringIcSt11char_traitsIcESaIcEE2atEm.exit

13:                                               ; preds = %7
  tail call void (ptr, ...) @_ZSt24__throw_out_of_range_fmtPKcz(ptr noundef nonnull @.str.1, i64 noundef 0, i64 noundef 0) #20
  unreachable

_ZNSt7__cxx1112basic_stringIcSt11char_traitsIcESaIcEE2atEm.exit: ; preds = %7
  %14 = load ptr, ptr %1, align 8, !tbaa !16
  %15 = load ptr, ptr %0, align 8, !tbaa !9
  %16 = load ptr, ptr %4, align 8, !tbaa !3
  %17 = ptrtoint ptr %16 to i64
  %18 = ptrtoint ptr %15 to i64
  %19 = sub i64 %17, %18
  tail call void @llvm.memcpy.p0.p0.i64(ptr nonnull align 1 %14, ptr nonnull align 1 %15, i64 %19, i1 false)
  br label %20

20:                                               ; preds = %2, %_ZNSt7__cxx1112basic_stringIcSt11char_traitsIcESaIcEE2atEm.exit
  ret i1 %6
}